; ModuleID = 'source-C-CXX/26/1534.c'
source_filename = "source-C-CXX/26/1534.c"
target datalayout = "e-m:e-p270:32:32-p271:32:32-p272:64:64-i64:64-f80:128-n8:16:32:64-S128"
target triple = "x86_64-pc-linux-gnu"

@.str = private unnamed_addr constant [3 x i8] c"%d\00", align 1
@.str.1 = private unnamed_addr constant [10 x i8] c"%lf%lf%lf\00", align 1
@.str.2 = private unnamed_addr constant [17 x i8] c"x1=%.5f;x2=%.5f\0A\00", align 1
@.str.3 = private unnamed_addr constant [12 x i8] c"x1=x2=%.5f\0A\00", align 1
@.str.4 = private unnamed_addr constant [29 x i8] c"x1=%.5f+%.5fi;x2=%.5f-%.5fi\0A\00", align 1

; Function Attrs: nofree nounwind sspstrong uwtable
define dso_local i32 @main() local_unnamed_addr #0 {
  %1 = alloca i32, align 4
  %2 = alloca double, align 8
  %3 = alloca double, align 8
  %4 = alloca double, align 8
  %5 = bitcast i32* %1 to i8*
  call void @llvm.lifetime.start.p0i8(i64 4, i8* nonnull %5) #5
  %6 = call i32 (i8*, ...) @__isoc99_scanf(i8* getelementptr inbounds ([3 x i8], [3 x i8]* @.str, i64 0, i64 0), i32* nonnull %1)
  %7 = bitcast double* %2 to i8*
  %8 = bitcast double* %3 to i8*
  %9 = bitcast double* %4 to i8*
  %10 = load i32, i32* %1, align 4, !tbaa !5
  %11 = add nsw i32 %10, -1
  store i32 %11, i32* %1, align 4, !tbaa !5
  %12 = icmp eq i32 %10, 0
  br i1 %12, label %50, label %13

13:                                               ; preds = %0, %46
  call void @llvm.lifetime.start.p0i8(i64 8, i8* nonnull %7) #5
  call void @llvm.lifetime.start.p0i8(i64 8, i8* nonnull %8) #5
  call void @llvm.lifetime.start.p0i8(i64 8, i8* nonnull %9) #5
  %14 = call i32 (i8*, ...) @__isoc99_scanf(i8* getelementptr inbounds ([10 x i8], [10 x i8]* @.str.1, i64 0, i64 0), double* nonnull %2, double* nonnull %3, double* nonnull %4)
  %15 = load double, double* %3, align 8, !tbaa !9
  %16 = fmul double %15, %15
  %17 = load double, double* %2, align 8, !tbaa !9
  %18 = fmul double %17, 4.000000e+00
  %19 = load double, double* %4, align 8, !tbaa !9
  %20 = fmul double %18, %19
  %21 = fsub double %16, %20
  %22 = fneg double %15
  %23 = fmul double %17, 2.000000e+00
  %24 = fdiv double %22, %23
  %25 = call double @llvm.fabs.f64(double %21)
  %26 = call double @sqrt(double %25) #5
  %27 = load double, double* %2, align 8, !tbaa !9
  %28 = fmul double %27, 2.000000e+00
  %29 = fdiv double %26, %28
  %30 = fcmp oeq double %24, 0.000000e+00
  %31 = select i1 %30, double 0.000000e+00, double %24
  %32 = fcmp ogt double %21, 0.000000e+00
  br i1 %32, label %33, label %37

33:                                               ; preds = %13
  %34 = fadd double %31, %29
  %35 = fsub double %31, %29
  %36 = call i32 (i8*, ...) @printf(i8* nonnull dereferenceable(1) getelementptr inbounds ([17 x i8], [17 x i8]* @.str.2, i64 0, i64 0), double %34, double %35)
  br label %37

37:                                               ; preds = %33, %13
  %38 = fcmp oeq double %21, 0.000000e+00
  br i1 %38, label %39, label %41

39:                                               ; preds = %37
  %40 = call i32 (i8*, ...) @printf(i8* nonnull dereferenceable(1) getelementptr inbounds ([12 x i8], [12 x i8]* @.str.3, i64 0, i64 0), double %31)
  br label %41

41:                                               ; preds = %39, %37
  %42 = fcmp olt double %21, 0.000000e+00
  br i1 %42, label %43, label %46

43:                                               ; preds = %41
  %44 = call double @llvm.fabs.f64(double %29)
  %45 = call i32 (i8*, ...) @printf(i8* nonnull dereferenceable(1) getelementptr inbounds ([29 x i8], [29 x i8]* @.str.4, i64 0, i64 0), double %31, double %44, double %31, double %44)
  br label %46

46:                                               ; preds = %43, %41
  call void @llvm.lifetime.end.p0i8(i64 8, i8* nonnull %9) #5
  call void @llvm.lifetime.end.p0i8(i64 8, i8* nonnull %8) #5
  call void @llvm.lifetime.end.p0i8(i64 8, i8* nonnull %7) #5
  %47 = load i32, i32* %1, align 4, !tbaa !5
  %48 = add nsw i32 %47, -1
  store i32 %48, i32* %1, align 4, !tbaa !5
  %49 = icmp eq i32 %47, 0
  br i1 %49, label %50, label %13, !llvm.loop !11

50:                                               ; preds = %46, %0
  call void @llvm.lifetime.end.p0i8(i64 4, i8* nonnull %5) #5
  ret i32 0
}

; Function Attrs: argmemonly mustprogress nofree nosync nounwind willreturn
declare void @llvm.lifetime.start.p0i8(i64 immarg, i8* nocapture) #1

; Function Attrs: nofree nounwind
declare noundef i32 @__isoc99_scanf(i8* nocapture noundef readonly, ...) local_unnamed_addr #2

; Function Attrs: mustprogress nofree nounwind willreturn
declare double @sqrt(double) local_unnamed_addr #3

; Function Attrs: mustprogress nofree nosync nounwind readnone speculatable willreturn
declare double @llvm.fabs.f64(double) #4

; Function Attrs: nofree nounwind
declare noundef i32 @printf(i8* nocapture noundef readonly, ...) local_unnamed_addr #2

; Function Attrs: argmemonly mustprogress nofree nosync nounwind willreturn
declare void @llvm.lifetime.end.p0i8(i64 immarg, i8* nocapture) #1


!llvm.module.flags = !{!0, !1, !2, !3}
!llvm.ident = !{!4}

!0 = !{i32 1, !"wchar_size", i32 4}
!1 = !{i32 7, !"PIC Level", i32 2}
!2 = !{i32 7, !"PIE Level", i32 2}
!3 = !{i32 7, !"uwtable", i32 1}
!4 = !{!"clang version 13.0.0"}
!5 = !{!6, !6, i64 0}
!6 = !{!"int", !7, i64 0}
!7 = !{!"omnipotent char", !8, i64 0}
!8 = !{!"Simple C/C++ TBAA"}
!9 = !{!10, !10, i64 0}
!10 = !{!"double", !7, i64 0}
!11 = distinct !{!11, !12}
!12 = !{!"llvm.loop.mustprogress"}
